target datalayout = "e-m:e-p270:32:32-p271:32:32-p272:64:64-i64:64-i128:128-f80:128-n8:16:32:64-S128"
target triple = "x86_64-pc-linux-gnu"

@.str.1 = private unnamed_addr constant [2 x i8] c" \00", align 1

; Function Attrs: nounwind uwtable
define i32 @BIO_indent(ptr noundef %0, i32 noundef %1, i32 noundef %2) #0 {
  %4 = alloca i32, align 4
  %5 = alloca ptr, align 8
  %6 = alloca i32, align 4
  %7 = alloca i32, align 4
  store ptr %0, ptr %5, align 8, !tbaa !10
  store i32 %1, ptr %6, align 4, !tbaa !26
  store i32 %2, ptr %7, align 4, !tbaa !26
  %8 = load i32, ptr %6, align 4, !tbaa !26
  %9 = icmp slt i32 %8, 0
  br i1 %9, label %10, label %11

10:                                               ; preds = %3
  store i32 0, ptr %6, align 4, !tbaa !26
  br label %11

11:                                               ; preds = %10, %3
  %12 = load i32, ptr %6, align 4, !tbaa !26
  %13 = load i32, ptr %7, align 4, !tbaa !26
  %14 = icmp sgt i32 %12, %13
  br i1 %14, label %15, label %17

15:                                               ; preds = %11
  %16 = load i32, ptr %7, align 4, !tbaa !26
  store i32 %16, ptr %6, align 4, !tbaa !26
  br label %17

17:                                               ; preds = %15, %11
  br label %18

18:                                               ; preds = %27, %17
  %19 = load i32, ptr %6, align 4, !tbaa !26
  %20 = add nsw i32 %19, -1
  store i32 %20, ptr %6, align 4, !tbaa !26
  %21 = icmp ne i32 %19, 0
  br i1 %21, label %22, label %28

22:                                               ; preds = %18
  %23 = load ptr, ptr %5, align 8, !tbaa !10
  %24 = call i32 @BIO_puts(ptr noundef %23, ptr noundef @.str.1)
  %25 = icmp ne i32 %24, 1
  br i1 %25, label %26, label %27

26:                                               ; preds = %22
  store i32 0, ptr %4, align 4
  br label %29

27:                                               ; preds = %22
  br label %18, !llvm.loop !64

28:                                               ; preds = %18
  store i32 1, ptr %4, align 4
  br label %29

29:                                               ; preds = %28, %26
  %30 = load i32, ptr %4, align 4
  ret i32 %30
}