; Function Attrs: nounwind uwtable
define range(i32 0, 2) i32 @BIO_indent(ptr noundef %0, i32 noundef %1, i32 noundef %2) local_unnamed_addr #0 {
  %spec.store.select = tail call i32 @llvm.smax.i32(i32 %1, i32 0)
  %spec.select = tail call i32 @llvm.smin.i32(i32 %spec.store.select, i32 %2)
  br label %4

4:                                                ; preds = %5, %3
  %.1 = phi i32 [ %spec.select, %3 ], [ %6, %5 ]
  %.not = icmp eq i32 %.1, 0
  br i1 %.not, label %8, label %5

5:                                                ; preds = %4
  %6 = add nsw i32 %.1, -1
  %7 = tail call i32 @BIO_puts(ptr noundef %0, ptr noundef nonnull @.str.1)
  %.not8 = icmp eq i32 %7, 1
  br i1 %.not8, label %4, label %8, !llvm.loop !52

8:                                                ; preds = %4, %5
  %.0 = phi i32 [ 0, %5 ], [ 1, %4 ]
  ret i32 %.0
}